target datalayout = "e-m:e-p270:32:32-p271:32:32-p272:64:64-i64:64-i128:128-f80:128-n8:16:32:64-S128"
target triple = "x86_64-pc-linux-gnu"

%struct.evp_pkey_st = type { i32, i32, ptr, ptr, ptr, %union.legacy_pkey_st, %union.legacy_pkey_st, %struct.CRYPTO_REF_COUNT, ptr, ptr, i32, i8, %struct.crypto_ex_data_st, ptr, ptr, i64, ptr, i64, %struct.anon }
%union.legacy_pkey_st = type { ptr }
%struct.CRYPTO_REF_COUNT = type { i32 }
%struct.crypto_ex_data_st = type { ptr, ptr }
%struct.anon = type { i32, i32, i32 }
%struct.evp_pkey_asn1_method_st = type { i32, i32, i64, ptr, ptr, ptr, ptr, ptr, ptr, ptr, ptr, ptr, ptr, ptr, ptr, ptr, ptr, ptr, ptr, ptr, ptr, ptr, ptr, ptr, ptr, ptr, ptr, ptr, ptr, ptr, ptr, ptr, ptr, ptr, ptr, ptr, ptr, ptr, ptr, ptr, ptr }

@.str = private unnamed_addr constant [33 x i8] c"../openssl/crypto/evp/evp_pkey.c\00", align 1
@.str.2 = private unnamed_addr constant [4 x i8] c"DER\00", align 1
@.str.3 = private unnamed_addr constant [15 x i8] c"PrivateKeyInfo\00", align 1
@__func__.EVP_PKEY2PKCS8 = private unnamed_addr constant [15 x i8] c"EVP_PKEY2PKCS8\00", align 1

; Function Attrs: nounwind uwtable
define ptr @EVP_PKEY2PKCS8(ptr noundef %0) #0 {
  %2 = alloca ptr, align 8
  %3 = alloca ptr, align 8
  %4 = alloca ptr, align 8
  %5 = alloca ptr, align 8
  %6 = alloca i32, align 4
  %7 = alloca ptr, align 8
  %8 = alloca i64, align 8
  %9 = alloca ptr, align 8
  %10 = alloca i32, align 4
  store ptr %0, ptr %3, align 8, !tbaa !12
  call void @llvm.lifetime.start.p0(i64 8, ptr %4) #3
  store ptr null, ptr %4, align 8, !tbaa !3
  call void @llvm.lifetime.start.p0(i64 8, ptr %5) #3
  store ptr null, ptr %5, align 8, !tbaa !36
  %11 = load ptr, ptr %3, align 8, !tbaa !12
  %12 = getelementptr inbounds nuw %struct.evp_pkey_st, ptr %11, i32 0, i32 13
  %13 = load ptr, ptr %12, align 8, !tbaa !38
  %14 = icmp ne ptr %13, null
  br i1 %14, label %15, label %37

15:                                               ; preds = %1
  call void @llvm.lifetime.start.p0(i64 4, ptr %6) #3
  store i32 135, ptr %6, align 4, !tbaa !34
  call void @llvm.lifetime.start.p0(i64 8, ptr %7) #3
  store ptr null, ptr %7, align 8, !tbaa !10
  call void @llvm.lifetime.start.p0(i64 8, ptr %8) #3
  store i64 0, ptr %8, align 8, !tbaa !35
  call void @llvm.lifetime.start.p0(i64 8, ptr %9) #3
  %16 = load ptr, ptr %3, align 8, !tbaa !12
  %17 = load i32, ptr %6, align 4, !tbaa !34
  %18 = call ptr @OSSL_ENCODER_CTX_new_for_pkey(ptr noundef %16, i32 noundef %17, ptr noundef @.str.2, ptr noundef @.str.3, ptr noundef null)
  store ptr %18, ptr %5, align 8, !tbaa !36
  %19 = icmp eq ptr %18, null
  br i1 %19, label %24, label %20

20:                                               ; preds = %15
  %21 = load ptr, ptr %5, align 8, !tbaa !36
  %22 = call i32 @OSSL_ENCODER_to_data(ptr noundef %21, ptr noundef %7, ptr noundef %8)
  %23 = icmp ne i32 %22, 0
  br i1 %23, label %25, label %24

24:                                               ; preds = %20, %15
  store i32 2, ptr %10, align 4
  br label %34

25:                                               ; preds = %20
  %26 = load ptr, ptr %7, align 8, !tbaa !10
  store ptr %26, ptr %9, align 8, !tbaa !10
  %27 = load i64, ptr %8, align 8, !tbaa !35
  %28 = call ptr @d2i_PKCS8_PRIV_KEY_INFO(ptr noundef null, ptr noundef %9, i64 noundef %27)
  store ptr %28, ptr %4, align 8, !tbaa !3
  %29 = load ptr, ptr %7, align 8, !tbaa !10
  call void @CRYPTO_free(ptr noundef %29, ptr noundef @.str, i32 noundef 148)
  %30 = load ptr, ptr %4, align 8, !tbaa !3
  %31 = icmp eq ptr %30, null
  br i1 %31, label %32, label %33

32:                                               ; preds = %25
  store i32 2, ptr %10, align 4
  br label %34

33:                                               ; preds = %25
  store i32 0, ptr %10, align 4
  br label %34

34:                                               ; preds = %32, %24, %33
  call void @llvm.lifetime.end.p0(i64 8, ptr %9) #3
  call void @llvm.lifetime.end.p0(i64 8, ptr %8) #3
  call void @llvm.lifetime.end.p0(i64 8, ptr %7) #3
  call void @llvm.lifetime.end.p0(i64 4, ptr %6) #3
  %35 = load i32, ptr %10, align 4
  switch i32 %35, label %76 [
    i32 0, label %36
    i32 2, label %71
  ]

36:                                               ; preds = %34
  br label %70

37:                                               ; preds = %1
  %38 = call ptr @PKCS8_PRIV_KEY_INFO_new()
  store ptr %38, ptr %4, align 8, !tbaa !3
  %39 = load ptr, ptr %4, align 8, !tbaa !3
  %40 = icmp eq ptr %39, null
  br i1 %40, label %41, label %42

41:                                               ; preds = %37
  call void @ERR_new()
  call void @ERR_set_debug(ptr noundef @.str, i32 noundef 154, ptr noundef @__func__.EVP_PKEY2PKCS8)
  call void (i32, i32, ptr, ...) @ERR_set_error(i32 noundef 6, i32 noundef 524301, ptr noundef null)
  store ptr null, ptr %2, align 8
  store i32 1, ptr %10, align 4
  br label %76

42:                                               ; preds = %37
  %43 = load ptr, ptr %3, align 8, !tbaa !12
  %44 = getelementptr inbounds nuw %struct.evp_pkey_st, ptr %43, i32 0, i32 2
  %45 = load ptr, ptr %44, align 8, !tbaa !16
  %46 = icmp ne ptr %45, null
  br i1 %46, label %47, label %68

47:                                               ; preds = %42
  %48 = load ptr, ptr %3, align 8, !tbaa !12
  %49 = getelementptr inbounds nuw %struct.evp_pkey_st, ptr %48, i32 0, i32 2
  %50 = load ptr, ptr %49, align 8, !tbaa !16
  %51 = getelementptr inbounds nuw %struct.evp_pkey_asn1_method_st, ptr %50, i32 0, i32 10
  %52 = load ptr, ptr %51, align 8, !tbaa !39
  %53 = icmp ne ptr %52, null
  br i1 %53, label %54, label %66

54:                                               ; preds = %47
  %55 = load ptr, ptr %3, align 8, !tbaa !12
  %56 = getelementptr inbounds nuw %struct.evp_pkey_st, ptr %55, i32 0, i32 2
  %57 = load ptr, ptr %56, align 8, !tbaa !16
  %58 = getelementptr inbounds nuw %struct.evp_pkey_asn1_method_st, ptr %57, i32 0, i32 10
  %59 = load ptr, ptr %58, align 8, !tbaa !39
  %60 = load ptr, ptr %4, align 8, !tbaa !3
  %61 = load ptr, ptr %3, align 8, !tbaa !12
  %62 = call i32 %59(ptr noundef %60, ptr noundef %61)
  %63 = icmp ne i32 %62, 0
  br i1 %63, label %65, label %64

64:                                               ; preds = %54
  call void @ERR_new()
  call void @ERR_set_debug(ptr noundef @.str, i32 noundef 161, ptr noundef @__func__.EVP_PKEY2PKCS8)
  call void (i32, i32, ptr, ...) @ERR_set_error(i32 noundef 6, i32 noundef 146, ptr noundef null)
  br label %71

65:                                               ; preds = %54
  br label %67

66:                                               ; preds = %47
  call void @ERR_new()
  call void @ERR_set_debug(ptr noundef @.str, i32 noundef 165, ptr noundef @__func__.EVP_PKEY2PKCS8)
  call void (i32, i32, ptr, ...) @ERR_set_error(i32 noundef 6, i32 noundef 144, ptr noundef null)
  br label %71

67:                                               ; preds = %65
  br label %69

68:                                               ; preds = %42
  call void @ERR_new()
  call void @ERR_set_debug(ptr noundef @.str, i32 noundef 169, ptr noundef @__func__.EVP_PKEY2PKCS8)
  call void (i32, i32, ptr, ...) @ERR_set_error(i32 noundef 6, i32 noundef 118, ptr noundef null)
  br label %71

69:                                               ; preds = %67
  br label %70

70:                                               ; preds = %69, %36
  br label %73

71:                                               ; preds = %34, %68, %66, %64
  %72 = load ptr, ptr %4, align 8, !tbaa !3
  call void @PKCS8_PRIV_KEY_INFO_free(ptr noundef %72)
  store ptr null, ptr %4, align 8, !tbaa !3
  br label %73

73:                                               ; preds = %71, %70
  %74 = load ptr, ptr %5, align 8, !tbaa !36
  call void @OSSL_ENCODER_CTX_free(ptr noundef %74)
  %75 = load ptr, ptr %4, align 8, !tbaa !3
  store ptr %75, ptr %2, align 8
  store i32 1, ptr %10, align 4
  br label %76

76:                                               ; preds = %73, %41, %34
  call void @llvm.lifetime.end.p0(i64 8, ptr %5) #3
  call void @llvm.lifetime.end.p0(i64 8, ptr %4) #3
  %77 = load ptr, ptr %2, align 8
  ret ptr %77
}