; Function Attrs: nounwind uwtable
define ptr @EVP_PKEY2PKCS8(ptr noundef %0) local_unnamed_addr #0 {
  %2 = alloca ptr, align 8
  %3 = alloca i64, align 8
  %4 = alloca ptr, align 8
  %5 = getelementptr inbounds nuw i8, ptr %0, i64 96
  %6 = load ptr, ptr %5, align 8, !tbaa !30
  %.not = icmp eq ptr %6, null
  br i1 %.not, label %19, label %7

7:                                                ; preds = %1
  call void @llvm.lifetime.start.p0(i64 8, ptr nonnull %2) #3
  store ptr null, ptr %2, align 8, !tbaa !28
  call void @llvm.lifetime.start.p0(i64 8, ptr nonnull %3) #3
  store i64 0, ptr %3, align 8, !tbaa !29
  call void @llvm.lifetime.start.p0(i64 8, ptr nonnull %4) #3
  %8 = tail call ptr @OSSL_ENCODER_CTX_new_for_pkey(ptr noundef nonnull %0, i32 noundef 135, ptr noundef nonnull @.str.2, ptr noundef nonnull @.str.3, ptr noundef null) #3
  %9 = icmp eq ptr %8, null
  br i1 %9, label %.thread, label %10

10:                                               ; preds = %7
  %11 = call i32 @OSSL_ENCODER_to_data(ptr noundef nonnull %8, ptr noundef nonnull %2, ptr noundef nonnull %3) #3
  %.not28 = icmp eq i32 %11, 0
  br i1 %.not28, label %.thread, label %12

12:                                               ; preds = %10
  %13 = load ptr, ptr %2, align 8, !tbaa !28
  store ptr %13, ptr %4, align 8, !tbaa !28
  %14 = load i64, ptr %3, align 8, !tbaa !29
  %15 = call ptr @d2i_PKCS8_PRIV_KEY_INFO(ptr noundef null, ptr noundef nonnull %4, i64 noundef %14) #3
  %16 = load ptr, ptr %2, align 8, !tbaa !28
  call void @CRYPTO_free(ptr noundef %16, ptr noundef nonnull @.str, i32 noundef 148) #3
  %17 = icmp eq ptr %15, null
  br i1 %17, label %.thread, label %18

.thread:                                          ; preds = %10, %7, %12
  call void @llvm.lifetime.end.p0(i64 8, ptr nonnull %4) #3
  call void @llvm.lifetime.end.p0(i64 8, ptr nonnull %3) #3
  call void @llvm.lifetime.end.p0(i64 8, ptr nonnull %2) #3
  br label %34

18:                                               ; preds = %12
  call void @llvm.lifetime.end.p0(i64 8, ptr nonnull %4) #3
  call void @llvm.lifetime.end.p0(i64 8, ptr nonnull %3) #3
  call void @llvm.lifetime.end.p0(i64 8, ptr nonnull %2) #3
  br label %35

19:                                               ; preds = %1
  %20 = tail call ptr @PKCS8_PRIV_KEY_INFO_new() #3
  %21 = icmp eq ptr %20, null
  br i1 %21, label %22, label %23

22:                                               ; preds = %19
  tail call void @ERR_new() #3
  tail call void @ERR_set_debug(ptr noundef nonnull @.str, i32 noundef 154, ptr noundef nonnull @__func__.EVP_PKEY2PKCS8) #3
  tail call void (i32, i32, ptr, ...) @ERR_set_error(i32 noundef 6, i32 noundef 524301, ptr noundef null) #3
  br label %36

23:                                               ; preds = %19
  %24 = getelementptr inbounds nuw i8, ptr %0, i64 8
  %25 = load ptr, ptr %24, align 8, !tbaa !8
  %.not25 = icmp eq ptr %25, null
  br i1 %.not25, label %33, label %26

26:                                               ; preds = %23
  %27 = getelementptr inbounds nuw i8, ptr %25, i64 72
  %28 = load ptr, ptr %27, align 8, !tbaa !31
  %.not26 = icmp eq ptr %28, null
  br i1 %.not26, label %32, label %29

29:                                               ; preds = %26
  %30 = tail call i32 %28(ptr noundef nonnull %20, ptr noundef nonnull %0) #3
  %.not27 = icmp eq i32 %30, 0
  br i1 %.not27, label %31, label %35

31:                                               ; preds = %29
  tail call void @ERR_new() #3
  tail call void @ERR_set_debug(ptr noundef nonnull @.str, i32 noundef 161, ptr noundef nonnull @__func__.EVP_PKEY2PKCS8) #3
  tail call void (i32, i32, ptr, ...) @ERR_set_error(i32 noundef 6, i32 noundef 146, ptr noundef null) #3
  br label %34

32:                                               ; preds = %26
  tail call void @ERR_new() #3
  tail call void @ERR_set_debug(ptr noundef nonnull @.str, i32 noundef 165, ptr noundef nonnull @__func__.EVP_PKEY2PKCS8) #3
  tail call void (i32, i32, ptr, ...) @ERR_set_error(i32 noundef 6, i32 noundef 144, ptr noundef null) #3
  br label %34

33:                                               ; preds = %23
  tail call void @ERR_new() #3
  tail call void @ERR_set_debug(ptr noundef nonnull @.str, i32 noundef 169, ptr noundef nonnull @__func__.EVP_PKEY2PKCS8) #3
  tail call void (i32, i32, ptr, ...) @ERR_set_error(i32 noundef 6, i32 noundef 118, ptr noundef null) #3
  br label %34

34:                                               ; preds = %.thread, %33, %32, %31
  %.118 = phi ptr [ %20, %31 ], [ %20, %32 ], [ %20, %33 ], [ null, %.thread ]
  %.016 = phi ptr [ null, %31 ], [ null, %32 ], [ null, %33 ], [ %8, %.thread ]
  call void @PKCS8_PRIV_KEY_INFO_free(ptr noundef %.118) #3
  br label %35

35:                                               ; preds = %18, %29, %34
  %.2 = phi ptr [ null, %34 ], [ %15, %18 ], [ %20, %29 ]
  %.1 = phi ptr [ %.016, %34 ], [ %8, %18 ], [ null, %29 ]
  call void @OSSL_ENCODER_CTX_free(ptr noundef %.1) #3
  br label %36

36:                                               ; preds = %35, %22
  %.015 = phi ptr [ %.2, %35 ], [ null, %22 ]
  ret ptr %.015
}